; Function Attrs: nounwind uwtable
define range(i32 -3, 1) i32 @KINSetJacTimesVecFn(ptr noundef %0, ptr noundef %1) local_unnamed_addr #0 {
  %3 = icmp eq ptr %0, null
  br i1 %3, label %4, label %5

4:                                                ; preds = %2
  tail call void (ptr, i32, i32, ptr, ptr, ptr, ...) @KINProcessError(ptr noundef null, i32 noundef -1, i32 noundef 1399, ptr noundef nonnull @__func__.KINSetJacTimesVecFn, ptr noundef nonnull @.str, ptr noundef nonnull @.str.1) #13
  br label %kinLs_AccessLMem.exit.thread

5:                                                ; preds = %2
  %6 = getelementptr inbounds nuw i8, ptr %0, i64 584
  %7 = load ptr, ptr %6, align 8, !tbaa !55
  %8 = icmp eq ptr %7, null
  br i1 %8, label %9, label %kinLs_AccessLMem.exit

9:                                                ; preds = %5
  tail call void (ptr, i32, i32, ptr, ptr, ptr, ...) @KINProcessError(ptr noundef nonnull %0, i32 noundef -2, i32 noundef 1406, ptr noundef nonnull @__func__.KINSetJacTimesVecFn, ptr noundef nonnull @.str, ptr noundef nonnull @.str.26) #13
  br label %kinLs_AccessLMem.exit.thread

kinLs_AccessLMem.exit:                            ; preds = %5
  %10 = getelementptr inbounds nuw i8, ptr %7, i64 32
  %11 = load ptr, ptr %10, align 8, !tbaa !37
  %12 = getelementptr inbounds nuw i8, ptr %11, i64 8
  %13 = load ptr, ptr %12, align 8, !tbaa !3
  %14 = getelementptr inbounds nuw i8, ptr %13, i64 16
  %15 = load ptr, ptr %14, align 8, !tbaa !31
  %16 = icmp eq ptr %15, null
  br i1 %16, label %17, label %18

17:                                               ; preds = %kinLs_AccessLMem.exit
  tail call void (ptr, i32, i32, ptr, ptr, ptr, ...) @KINProcessError(ptr noundef nonnull %0, i32 noundef -3, i32 noundef 328, ptr noundef nonnull @__func__.KINSetJacTimesVecFn, ptr noundef nonnull @.str, ptr noundef nonnull @.str.14) #13
  br label %kinLs_AccessLMem.exit.thread

18:                                               ; preds = %kinLs_AccessLMem.exit
  %.not7 = icmp eq ptr %1, null
  %19 = getelementptr inbounds nuw i8, ptr %7, i64 152
  %20 = getelementptr inbounds nuw i8, ptr %7, i64 160
  br i1 %.not7, label %25, label %21

21:                                               ; preds = %18
  store i32 0, ptr %19, align 8, !tbaa !44
  store ptr %1, ptr %20, align 8, !tbaa !45
  %22 = getelementptr inbounds nuw i8, ptr %0, i64 24
  %23 = load ptr, ptr %22, align 8, !tbaa !49
  %24 = getelementptr inbounds nuw i8, ptr %7, i64 176
  store ptr %23, ptr %24, align 8, !tbaa !48
  br label %kinLs_AccessLMem.exit.thread

25:                                               ; preds = %18
  store i32 1, ptr %19, align 8, !tbaa !44
  store ptr @kinLsDQJtimes, ptr %20, align 8, !tbaa !45
  %26 = getelementptr inbounds nuw i8, ptr %0, i64 16
  %27 = load ptr, ptr %26, align 8, !tbaa !46
  %28 = getelementptr inbounds nuw i8, ptr %7, i64 168
  store ptr %27, ptr %28, align 8, !tbaa !47
  %29 = getelementptr inbounds nuw i8, ptr %7, i64 176
  store ptr %0, ptr %29, align 8, !tbaa !48
  br label %kinLs_AccessLMem.exit.thread

kinLs_AccessLMem.exit.thread:                     ; preds = %9, %4, %21, %25, %17
  %.0 = phi i32 [ -3, %17 ], [ 0, %25 ], [ 0, %21 ], [ -2, %9 ], [ -1, %4 ]
  ret i32 %.0
}